(lp0
(dp1
Vdifficulty
p2
V7
p3
sVengagement
p4
V8
p5
sVinformative
p6
V10
p7
sa(dp8
Vdifficulty
p9
V8
p10
sVengagement
p11
V10
p12
sVopenended
p13
V                    
p14
sVinformative
p15
V10
p16
sa(dp17
Vdifficulty
p18
V8
p19
sVengagement
p20
V7
p21
sVopenended
p22
V                    
p23
sVinformative
p24
V8
p25
sa(dp26
Vdifficulty
p27
V3
p28
sVengagement
p29
V8
p30
sVinformative
p31
V10
p32
sa(dp33
Vdifficulty
p34
V5
p35
sVengagement
p36
V6
p37
sVopenended
p38
V                    Nothing to improve, I thought it was really well done. I found that if I created questions for the symbols it helped dramatically. So a heart asked "Is it alive?" and a diamond asked "Is it big?" And that made it much less stressful for the final round. Not that I did very well...
p39
sVinformative
p40
V10
p41
sa(dp42
Vdifficulty
p43
V8
p44
sVengagement
p45
V6
p46
sVinformative
p47
V10
p48
sa(dp49
Vdifficulty
p50
V8
p51
sVengagement
p52
V7
p53
sVopenended
p54
V                    
p55
sVinformative
p56
V6
p57
sa(dp58
Vdifficulty
p59
V0
p60
sVengagement
p61
V10
p62
sVinformative
p63
V10
p64
sa(dp65
Vdifficulty
p66
V7
p67
sVengagement
p68
V9
p69
sVopenended
p70
V                    
p71
sVinformative
p72
V10
p73
sa(dp74
Vdifficulty
p75
V3
p76
sVengagement
p77
V9
p78
sVinformative
p79
V0
p80
sa(dp81
Vdifficulty
p82
V7
p83
sVengagement
p84
V10
p85
sVopenended
p86
V                    
p87
sVinformative
p88
V9
p89
sa(dp90
Vdifficulty
p91
V8
p92
sVengagement
p93
V8
p94
sVopenended
p95
V                    
p96
sVinformative
p97
V5
p98
sa(dp99
Vdifficulty
p100
V7
p101
sVengagement
p102
V8
p103
sVopenended
p104
V                    
p105
sVinformative
p106
V9
p107
sa(dp108
Vdifficulty
p109
V7
p110
sVengagement
p111
V8
p112
sVopenended
p113
V                    No comments
p114
sVinformative
p115
V8
p116
sa(dp117
Vdifficulty
p118
V5
p119
sVengagement
p120
V3
p121
sVopenended
p122
VPay was quite low for the time involved. $6/hr is below even federal minimum wage.
p123
sVinformative
p124
V10
p125
sa(dp126
Vdifficulty
p127
V5
p128
sVengagement
p129
V5
p130
sVinformative
p131
V5
p132
sa(dp133
Vdifficulty
p134
V7
p135
sVengagement
p136
V10
p137
sVopenended
p138
V                Makes you really have to be focused    
p139
sVinformative
p140
V10
p141
sa(dp142
a(dp143
Vdifficulty
p144
V0
p145
sVengagement
p146
V5
p147
sVinformative
p148
V10
p149
sa(dp150
Vdifficulty
p151
V6
p152
sVengagement
p153
V8
p154
sVopenended
p155
V                    
p156
sVinformative
p157
V10
p158
sa(dp159
Vdifficulty
p160
V6
p161
sVengagement
p162
V2
p163
sVopenended
p164
V                    
p165
sVinformative
p166
V10
p167
sa(dp168
Vdifficulty
p169
V5
p170
sVengagement
p171
V10
p172
sVopenended
p173
V                    
p174
sVinformative
p175
V10
p176
sa(dp177
Vdifficulty
p178
V7
p179
sVengagement
p180
V8
p181
sVopenended
p182
Vn/a         
p183
sVinformative
p184
V10
p185
sa(dp186
Vdifficulty
p187
V4
p188
sVengagement
p189
V10
p190
sVopenended
p191
V           This was a good hit.         
p192
sVinformative
p193
V10
p194
sa(dp195
Vdifficulty
p196
V4
p197
sVengagement
p198
V7
p199
sVopenended
p200
VI thought some of the objects could have been better chosen for the size categorization - things like lizards and tables can vary greatly in size which made it harder and less intuitive. \u000a\u000aAlso, the HIT screen says the task payment is $1.50, though the "Reward" is $.75. You might want to rectify this discrepancy. \u000aThanks      
p201
sVinformative
p202
V8
p203
sa(dp204
Vdifficulty
p205
V5
p206
sVengagement
p207
V10
p208
sVinformative
p209
V5
p210
sa(dp211
Vdifficulty
p212
V7
p213
sVengagement
p214
V9
p215
sVinformative
p216
V10
p217
sa(dp218
a(dp219
Vdifficulty
p220
V5
p221
sVengagement
p222
V10
p223
sVinformative
p224
V8
p225
sa(dp226
Vdifficulty
p227
V7
p228
sVengagement
p229
V5
p230
sVopenended
p231
V                    
p232
sVinformative
p233
V10
p234
sa(dp235
Vdifficulty
p236
V7
p237
sVengagement
p238
V9
p239
sVinformative
p240
V10
p241
sa(dp242
Vdifficulty
p243
V9
p244
sVengagement
p245
V7
p246
sVopenended
p247
V             Interesting,thanks!       
p248
sVinformative
p249
V9
p250
sa(dp251
a(dp252
Vdifficulty
p253
V6
p254
sVengagement
p255
V9
p256
sVinformative
p257
V10
p258
sa(dp259
Vdifficulty
p260
V8
p261
sVengagement
p262
V3
p263
sVinformative
p264
V3
p265
sa(dp266
Vdifficulty
p267
V7
p268
sVengagement
p269
V8
p270
sVopenended
p271
V                    
p272
sVinformative
p273
V10
p274
sa(dp275
a(dp276
Vdifficulty
p277
V0
p278
sVengagement
p279
V0
p280
sVinformative
p281
V7
p282
sa(dp283
Vdifficulty
p284
V4
p285
sVengagement
p286
V10
p287
sVopenended
p288
V                    Very interesting!
p289
sVinformative
p290
V9
p291
sa(dp292
Vdifficulty
p293
V5
p294
sVengagement
p295
V0
p296
sVopenended
p297
V                    
p298
sVinformative
p299
V9
p300
sa(dp301
Vdifficulty
p302
V4
p303
sVengagement
p304
V8
p305
sVinformative
p306
V8
p307
sa(dp308
Vdifficulty
p309
V0
p310
sVengagement
p311
V10
p312
sVinformative
p313
V10
p314
sa(dp315
Vdifficulty
p316
V0
p317
sVengagement
p318
V6
p319
sVinformative
p320
V5
p321
sa(dp322
Vdifficulty
p323
V6
p324
sVengagement
p325
V4
p326
sVopenended
p327
V                    worked well, thank you!
p328
sVinformative
p329
V8
p330
sa(dp331
Vdifficulty
p332
V0
p333
sVengagement
p334
V0
p335
sVinformative
p336
V5
p337
sa(dp338
Vdifficulty
p339
V3
p340
sVengagement
p341
V8
p342
sVopenended
p343
V                    
p344
sVinformative
p345
V9
p346
sa(dp347
Vdifficulty
p348
V8
p349
sVengagement
p350
V9
p351
sVopenended
p352
V                    
p353
sVinformative
p354
V8
p355
sa(dp356
Vdifficulty
p357
V8
p358
sVengagement
p359
V9
p360
sVinformative
p361
V9
p362
sa(dp363
Vdifficulty
p364
V5
p365
sVengagement
p366
V8
p367
sVinformative
p368
V9
p369
sa.